ccopy_reg
_reconstructor
p0
(c__main__
Cache
p1
c__builtin__
object
p2
Ntp3
Rp4
(dp5
S'status'
p6
S'published'
p7
sS'title'
p8
S'Election algorithm'
p9
sS'url'
p10
S'http://47.92.77.103/2018/11/29/election-algorithm/'
p11
sS'checksum'
p12
S'ff26b13c118efc9146d0e2da32873dd1'
p13
sS'created_at'
p14
I1543488555
sS'doctype'
p15
S'article'
p16
sS'updated_at'
p17
I1543459756
sS'post_type'
p18
S'post'
p19
sS'media'
p20
(dp21
sS'id'
p22
I55
sS'categories'
p23
(lp24
V\u5206\u5e03\u5f0f
p25
asb.