ccopy_reg
_reconstructor
p0
(c__main__
Cache
p1
c__builtin__
object
p2
Ntp3
Rp4
(dp5
S'status'
p6
S'published'
p7
sS'title'
p8
S'Types of network'
p9
sS'url'
p10
S'http://47.92.77.103/2018/11/29/types-of-network-2/'
p11
sS'checksum'
p12
S'eebbdfe4502a800eba6a5e0addea952a'
p13
sS'created_at'
p14
I1543488562
sS'doctype'
p15
S'article'
p16
sS'updated_at'
p17
I1543459763
sS'post_type'
p18
S'post'
p19
sS'media'
p20
(dp21
sS'id'
p22
I63
sS'categories'
p23
(lp24
V\u5206\u5e03\u5f0f
p25
asb.