ccopy_reg
_reconstructor
p0
(c__main__
Cache
p1
c__builtin__
object
p2
Ntp3
Rp4
(dp5
S'status'
p6
S'published'
p7
sS'title'
p8
S'Internetworking'
p9
sS'url'
p10
S'http://47.92.77.103/2018/11/29/internetworking-2/'
p11
sS'checksum'
p12
S'be3354e517863ab470253a6769a12664'
p13
sS'created_at'
p14
I1543488564
sS'doctype'
p15
S'article'
p16
sS'updated_at'
p17
I1543459764
sS'post_type'
p18
S'post'
p19
sS'media'
p20
(dp21
sS'id'
p22
I67
sS'categories'
p23
(lp24
V\u5206\u5e03\u5f0f
p25
asb.